Certificate:
    Data:
        Version: 3 (0x2)
        Serial Number: 1 (0x1)
    Signature Algorithm: sha1WithRSAEncryption
        Issuer: C=TW, ST=Taiwan, L=Taipei, O=D-Link Corporation, OU=Certificate for DSR (Self-Signed), CN=D-Link Corporation CA
        Validity
            Not Before: May 27 04:48:33 2015 GMT
            Not After : May 24 04:48:33 2025 GMT
        Subject: C=TW, ST=Taiwan, L=Taipei, O=D-Link Corporation, OU=Certificate for DSR (Self-Signed), CN=server
        Subject Public Key Info:
            Public Key Algorithm: rsaEncryption
                Public-Key: (1024 bit)
                Modulus:
                    00:b8:75:91:68:08:cf:96:44:e7:54:99:25:5f:79:
                    db:8e:81:36:bc:8c:b3:66:5d:06:a1:2c:84:95:88:
                    9c:3e:cf:e6:a0:c3:b7:a4:69:b9:15:05:aa:d8:ec:
                    d0:94:b0:da:5b:73:31:61:0b:23:25:38:33:87:49:
                    41:22:95:d2:28:a0:85:74:05:4c:f6:88:db:89:ca:
                    2d:69:c5:eb:40:9f:d7:87:94:dd:03:3d:27:20:e6:
                    62:07:3a:f8:1d:b9:ec:b7:a5:05:b6:1a:5c:70:f8:
                    f2:17:d9:f4:a2:b3:3c:38:78:7f:72:4e:f6:64:54:
                    62:4f:ae:74:20:c3:49:b7:a5
                Exponent: 65537 (0x10001)
        X509v3 extensions:
            X509v3 Basic Constraints: 
                CA:FALSE
            Netscape Cert Type: 
                SSL Server
            Netscape Comment: 
                Easy-RSA Generated Server Certificate
            X509v3 Subject Key Identifier: 
                1F:1D:00:87:98:3C:4B:D5:CE:EF:E0:89:49:E4:DC:FC:23:40:F8:71
            X509v3 Authority Key Identifier: 
                keyid:52:2E:CE:BE:14:74:B2:7D:10:EA:03:2A:B7:D9:CE:0C:8A:00:7E:86
                DirName:/C=TW/ST=Taiwan/L=Taipei/O=D-Link Corporation/OU=Certificate for DSR (Self-Signed)/CN=D-Link Corporation CA
                serial:F8:7B:C8:89:A7:D2:B5:4E

            X509v3 Extended Key Usage: 
                TLS Web Server Authentication
            X509v3 Key Usage: 
                Digital Signature, Key Encipherment
    Signature Algorithm: sha1WithRSAEncryption
         63:f9:ab:13:b5:47:1a:16:2b:09:25:61:a5:d6:90:fc:60:9a:
         f3:31:22:b9:19:df:e2:f2:e9:64:ae:ed:26:53:6a:84:d4:d3:
         0e:a3:44:e2:e4:74:5b:6a:54:47:18:27:b8:ca:b9:b7:b5:69:
         63:a8:98:22:d9:46:79:c1:2d:0f:30:ba:2d:06:65:37:63:51:
         78:f6:a6:de:b2:e6:fe:2a:d3:0e:12:93:22:1a:32:54:70:c5:
         8f:b7:e7:47:4c:fb:6a:f4:11:d0:5a:20:ac:78:16:62:f5:a7:
         e7:47:93:fd:46:c2:d5:0a:97:fb:0c:bc:a3:cd:a4:e7:28:49:
         10:da
-----BEGIN CERTIFICATE-----
MIIEBDCCA22gAwIBAgIBATANBgkqhkiG9w0BAQUFADCBmDELMAkGA1UEBhMCVFcx
DzANBgNVBAgTBlRhaXdhbjEPMA0GA1UEBxMGVGFpcGVpMRswGQYDVQQKExJELUxp
bmsgQ29ycG9yYXRpb24xKjAoBgNVBAsTIUNlcnRpZmljYXRlIGZvciBEU1IgKFNl
bGYtU2lnbmVkKTEeMBwGA1UEAxMVRC1MaW5rIENvcnBvcmF0aW9uIENBMB4XDTE1
MDUyNzA0NDgzM1oXDTI1MDUyNDA0NDgzM1owgYkxCzAJBgNVBAYTAlRXMQ8wDQYD
VQQIEwZUYWl3YW4xDzANBgNVBAcTBlRhaXBlaTEbMBkGA1UEChMSRC1MaW5rIENv
cnBvcmF0aW9uMSowKAYDVQQLEyFDZXJ0aWZpY2F0ZSBmb3IgRFNSIChTZWxmLVNp
Z25lZCkxDzANBgNVBAMTBnNlcnZlcjCBnzANBgkqhkiG9w0BAQEFAAOBjQAwgYkC
gYEAuHWRaAjPlkTnVJklX3nbjoE2vIyzZl0GoSyElYicPs/moMO3pGm5FQWq2OzQ
lLDaW3MxYQsjJTgzh0lBIpXSKKCFdAVM9ojbicotacXrQJ/Xh5TdAz0nIOZiBzr4
Hbnst6UFthpccPjyF9n0orM8OHh/ck72ZFRiT650IMNJt6UCAwEAAaOCAWkwggFl
MAkGA1UdEwQCMAAwEQYJYIZIAYb4QgEBBAQDAgZAMDQGCWCGSAGG+EIBDQQnFiVF
YXN5LVJTQSBHZW5lcmF0ZWQgU2VydmVyIENlcnRpZmljYXRlMB0GA1UdDgQWBBQf
HQCHmDxL1c7v4IlJ5Nz8I0D4cTCBzQYDVR0jBIHFMIHCgBRSLs6+FHSyfRDqAyq3
2c4MigB+hqGBnqSBmzCBmDELMAkGA1UEBhMCVFcxDzANBgNVBAgTBlRhaXdhbjEP
MA0GA1UEBxMGVGFpcGVpMRswGQYDVQQKExJELUxpbmsgQ29ycG9yYXRpb24xKjAo
BgNVBAsTIUNlcnRpZmljYXRlIGZvciBEU1IgKFNlbGYtU2lnbmVkKTEeMBwGA1UE
AxMVRC1MaW5rIENvcnBvcmF0aW9uIENBggkA+HvIiafStU4wEwYDVR0lBAwwCgYI
KwYBBQUHAwEwCwYDVR0PBAQDAgWgMA0GCSqGSIb3DQEBBQUAA4GBAGP5qxO1RxoW
KwklYaXWkPxgmvMxIrkZ3+Ly6WSu7SZTaoTU0w6jROLkdFtqVEcYJ7jKube1aWOo
mCLZRnnBLQ8wui0GZTdjUXj2pt6y5v4q0w4SkyIaMlRwxY+350dM+2r0EdBaIKx4
FmL1p+dHk/1GwtUKl/sMvKPNpOcoSRDa
-----END CERTIFICATE-----
