Certificate:
    Data:
        Version: 3 (0x2)
        Serial Number: 2 (0x2)
    Signature Algorithm: sha1WithRSAEncryption
        Issuer: C=TW, ST=Taiwan, L=Taipei, O=D-Link Corporation, OU=Certificate for DSR (Self-Signed), CN=D-Link Corporation CA
        Validity
            Not Before: May 27 04:48:41 2015 GMT
            Not After : May 24 04:48:41 2025 GMT
        Subject: C=TW, ST=Taiwan, L=Taipei, O=D-Link Corporation, OU=Certificate for DSR (Self-Signed), CN=client
        Subject Public Key Info:
            Public Key Algorithm: rsaEncryption
                Public-Key: (1024 bit)
                Modulus:
                    00:c0:bb:ba:1e:92:a1:42:f9:c3:98:f1:c2:03:36:
                    cd:34:0e:40:31:38:84:fc:7c:ec:2f:0d:cf:e1:f6:
                    4c:30:7d:af:fd:9c:96:a8:e6:e3:bd:1a:f9:51:ff:
                    00:e4:30:cf:85:8e:8e:80:a0:58:b5:c9:ac:7b:25:
                    81:a4:93:7a:cf:5e:9e:84:0b:63:46:14:e6:0f:cc:
                    e0:ee:60:cb:69:c5:ea:76:f8:3c:1e:13:b1:5e:e8:
                    bf:84:f9:e2:60:5d:cb:34:74:b4:7d:83:5d:8b:02:
                    eb:3e:86:42:0b:3a:ba:ca:81:96:db:70:8f:92:e0:
                    b6:fc:ce:92:6f:cd:e7:db:cb
                Exponent: 65537 (0x10001)
        X509v3 extensions:
            X509v3 Basic Constraints: 
                CA:FALSE
            Netscape Comment: 
                Easy-RSA Generated Certificate
            X509v3 Subject Key Identifier: 
                21:3E:F4:1C:79:82:CA:9D:33:9C:7B:9D:65:3C:63:17:F1:6F:E7:8E
            X509v3 Authority Key Identifier: 
                keyid:52:2E:CE:BE:14:74:B2:7D:10:EA:03:2A:B7:D9:CE:0C:8A:00:7E:86
                DirName:/C=TW/ST=Taiwan/L=Taipei/O=D-Link Corporation/OU=Certificate for DSR (Self-Signed)/CN=D-Link Corporation CA
                serial:F8:7B:C8:89:A7:D2:B5:4E

            X509v3 Extended Key Usage: 
                TLS Web Client Authentication
            X509v3 Key Usage: 
                Digital Signature
    Signature Algorithm: sha1WithRSAEncryption
         5c:ee:ae:a4:b6:1c:55:b1:1b:57:04:16:74:25:c4:07:27:0d:
         93:c7:75:11:b8:ea:06:ee:e9:c1:08:4c:a8:90:2d:ac:49:5c:
         d0:5c:eb:cc:f1:dc:d9:16:f6:81:2e:07:4c:a1:a7:62:dc:ae:
         78:74:e0:8f:13:03:40:b1:23:4d:1b:56:80:65:2b:a6:b7:6d:
         11:5c:b0:29:fe:13:29:cd:1d:64:33:ab:ff:a3:52:ce:96:09:
         e6:15:52:86:e8:99:7a:13:49:eb:74:50:39:a6:e4:0f:4a:c1:
         05:4f:ec:a8:af:0c:90:41:0d:55:07:da:30:55:2a:2e:98:e2:
         75:1c
-----BEGIN CERTIFICATE-----
MIID6jCCA1OgAwIBAgIBAjANBgkqhkiG9w0BAQUFADCBmDELMAkGA1UEBhMCVFcx
DzANBgNVBAgTBlRhaXdhbjEPMA0GA1UEBxMGVGFpcGVpMRswGQYDVQQKExJELUxp
bmsgQ29ycG9yYXRpb24xKjAoBgNVBAsTIUNlcnRpZmljYXRlIGZvciBEU1IgKFNl
bGYtU2lnbmVkKTEeMBwGA1UEAxMVRC1MaW5rIENvcnBvcmF0aW9uIENBMB4XDTE1
MDUyNzA0NDg0MVoXDTI1MDUyNDA0NDg0MVowgYkxCzAJBgNVBAYTAlRXMQ8wDQYD
VQQIEwZUYWl3YW4xDzANBgNVBAcTBlRhaXBlaTEbMBkGA1UEChMSRC1MaW5rIENv
cnBvcmF0aW9uMSowKAYDVQQLEyFDZXJ0aWZpY2F0ZSBmb3IgRFNSIChTZWxmLVNp
Z25lZCkxDzANBgNVBAMTBmNsaWVudDCBnzANBgkqhkiG9w0BAQEFAAOBjQAwgYkC
gYEAwLu6HpKhQvnDmPHCAzbNNA5AMTiE/HzsLw3P4fZMMH2v/ZyWqObjvRr5Uf8A
5DDPhY6OgKBYtcmseyWBpJN6z16ehAtjRhTmD8zg7mDLacXqdvg8HhOxXui/hPni
YF3LNHS0fYNdiwLrPoZCCzq6yoGW23CPkuC2/M6Sb83n28sCAwEAAaOCAU8wggFL
MAkGA1UdEwQCMAAwLQYJYIZIAYb4QgENBCAWHkVhc3ktUlNBIEdlbmVyYXRlZCBD
ZXJ0aWZpY2F0ZTAdBgNVHQ4EFgQUIT70HHmCyp0znHudZTxjF/Fv544wgc0GA1Ud
IwSBxTCBwoAUUi7OvhR0sn0Q6gMqt9nODIoAfoahgZ6kgZswgZgxCzAJBgNVBAYT
AlRXMQ8wDQYDVQQIEwZUYWl3YW4xDzANBgNVBAcTBlRhaXBlaTEbMBkGA1UEChMS
RC1MaW5rIENvcnBvcmF0aW9uMSowKAYDVQQLEyFDZXJ0aWZpY2F0ZSBmb3IgRFNS
IChTZWxmLVNpZ25lZCkxHjAcBgNVBAMTFUQtTGluayBDb3Jwb3JhdGlvbiBDQYIJ
APh7yImn0rVOMBMGA1UdJQQMMAoGCCsGAQUFBwMCMAsGA1UdDwQEAwIHgDANBgkq
hkiG9w0BAQUFAAOBgQBc7q6kthxVsRtXBBZ0JcQHJw2Tx3URuOoG7unBCEyokC2s
SVzQXOvM8dzZFvaBLgdMoadi3K54dOCPEwNAsSNNG1aAZSumt20RXLAp/hMpzR1k
M6v/o1LOlgnmFVKG6Jl6E0nrdFA5puQPSsEFT+yorwyQQQ1VB9owVSoumOJ1HA==
-----END CERTIFICATE-----
